; Function Attrs: mustprogress uwtable
define void @_ZN6duckdb21PrimitiveColumnWriterC2ERNS_13ParquetWriterEmNS_6vectorINSt7__cxx1112basic_stringIcSt11char_traitsIcESaIcEEELb1EEEmmb(ptr noundef nonnull align 8 dereferenceable(65) %0, ptr noundef nonnull align 1 %1, i64 noundef %2, ptr noundef captures(none) %3, i64 noundef %4, i64 noundef %5, i1 noundef zeroext %6) unnamed_addr #0 align 2 personality ptr @__gxx_personality_v0 {
  %8 = alloca %"class.duckdb::vector.15", align 8
  %9 = load ptr, ptr %3, align 8, !tbaa !79
  store ptr %9, ptr %8, align 8, !tbaa !79
  %10 = getelementptr inbounds nuw i8, ptr %8, i64 8
  %11 = getelementptr inbounds nuw i8, ptr %3, i64 8
  %12 = load ptr, ptr %11, align 8, !tbaa !80
  store ptr %12, ptr %10, align 8, !tbaa !80
  %13 = getelementptr inbounds nuw i8, ptr %8, i64 16
  %14 = getelementptr inbounds nuw i8, ptr %3, i64 16
  %15 = load ptr, ptr %14, align 8, !tbaa !81
  store ptr %15, ptr %13, align 8, !tbaa !81
  tail call void @llvm.memset.p0.i64(ptr noundef nonnull align 8 dereferenceable(24) %3, i8 0, i64 24, i1 false)
  invoke void @_ZN6duckdb12ColumnWriterC2ERNS_13ParquetWriterEmNS_6vectorINSt7__cxx1112basic_stringIcSt11char_traitsIcESaIcEEELb1EEEmmb(ptr noundef nonnull align 8 dereferenceable(65) %0, ptr noundef nonnull align 8 dereferenceable(672) %1, i64 noundef %2, ptr noundef nonnull %8, i64 noundef %4, i64 noundef %5, i1 noundef zeroext %6)
          to label %16 unwind label %28

16:                                               ; preds = %7
  %17 = load ptr, ptr %8, align 8, !tbaa !79
  %18 = load ptr, ptr %10, align 8, !tbaa !80
  %.not4.i.i.i.i = icmp eq ptr %17, %18
  br i1 %.not4.i.i.i.i, label %_ZSt8_DestroyIPNSt7__cxx1112basic_stringIcSt11char_traitsIcESaIcEEES5_EvT_S7_RSaIT0_E.exit.i, label %.lr.ph.i.i.i.i

.lr.ph.i.i.i.i:                                   ; preds = %16, %_ZSt8_DestroyINSt7__cxx1112basic_stringIcSt11char_traitsIcESaIcEEEEvPT_.exit.i.i.i.i
  %.05.i.i.i.i = phi ptr [ %25, %_ZSt8_DestroyINSt7__cxx1112basic_stringIcSt11char_traitsIcESaIcEEEEvPT_.exit.i.i.i.i ], [ %17, %16 ]
  %19 = load ptr, ptr %.05.i.i.i.i, align 8, !tbaa !11
  %20 = getelementptr inbounds nuw i8, ptr %.05.i.i.i.i, i64 16
  %21 = icmp eq ptr %19, %20
  br i1 %21, label %_ZNKSt7__cxx1112basic_stringIcSt11char_traitsIcESaIcEE11_M_is_localEv.exit.thread.i.i.i.i.i.i.i, label %_ZNKSt7__cxx1112basic_stringIcSt11char_traitsIcESaIcEE11_M_is_localEv.exit.i.i.i.i.i.i.i

_ZNKSt7__cxx1112basic_stringIcSt11char_traitsIcESaIcEE11_M_is_localEv.exit.thread.i.i.i.i.i.i.i: ; preds = %.lr.ph.i.i.i.i
  %22 = getelementptr inbounds nuw i8, ptr %.05.i.i.i.i, i64 8
  %23 = load i64, ptr %22, align 8, !tbaa !16
  %24 = icmp ult i64 %23, 16
  call void @llvm.assume(i1 %24)
  br label %_ZSt8_DestroyINSt7__cxx1112basic_stringIcSt11char_traitsIcESaIcEEEEvPT_.exit.i.i.i.i

_ZNKSt7__cxx1112basic_stringIcSt11char_traitsIcESaIcEE11_M_is_localEv.exit.i.i.i.i.i.i.i: ; preds = %.lr.ph.i.i.i.i
  call void @_ZdlPv(ptr noundef %19) #27
  br label %_ZSt8_DestroyINSt7__cxx1112basic_stringIcSt11char_traitsIcESaIcEEEEvPT_.exit.i.i.i.i

_ZSt8_DestroyINSt7__cxx1112basic_stringIcSt11char_traitsIcESaIcEEEEvPT_.exit.i.i.i.i: ; preds = %_ZNKSt7__cxx1112basic_stringIcSt11char_traitsIcESaIcEE11_M_is_localEv.exit.i.i.i.i.i.i.i, %_ZNKSt7__cxx1112basic_stringIcSt11char_traitsIcESaIcEE11_M_is_localEv.exit.thread.i.i.i.i.i.i.i
  %25 = getelementptr inbounds nuw i8, ptr %.05.i.i.i.i, i64 32
  %.not.i.i.i.i = icmp eq ptr %25, %18
  br i1 %.not.i.i.i.i, label %_ZSt8_DestroyIPNSt7__cxx1112basic_stringIcSt11char_traitsIcESaIcEEES5_EvT_S7_RSaIT0_E.exitthread-pre-split.i, label %.lr.ph.i.i.i.i, !llvm.loop !82

_ZSt8_DestroyIPNSt7__cxx1112basic_stringIcSt11char_traitsIcESaIcEEES5_EvT_S7_RSaIT0_E.exitthread-pre-split.i: ; preds = %_ZSt8_DestroyINSt7__cxx1112basic_stringIcSt11char_traitsIcESaIcEEEEvPT_.exit.i.i.i.i
  %.pr.i = load ptr, ptr %8, align 8, !tbaa !79
  br label %_ZSt8_DestroyIPNSt7__cxx1112basic_stringIcSt11char_traitsIcESaIcEEES5_EvT_S7_RSaIT0_E.exit.i

_ZSt8_DestroyIPNSt7__cxx1112basic_stringIcSt11char_traitsIcESaIcEEES5_EvT_S7_RSaIT0_E.exit.i: ; preds = %_ZSt8_DestroyIPNSt7__cxx1112basic_stringIcSt11char_traitsIcESaIcEEES5_EvT_S7_RSaIT0_E.exitthread-pre-split.i, %16
  %26 = phi ptr [ %.pr.i, %_ZSt8_DestroyIPNSt7__cxx1112basic_stringIcSt11char_traitsIcESaIcEEES5_EvT_S7_RSaIT0_E.exitthread-pre-split.i ], [ %17, %16 ]
  %.not.i.i.i = icmp eq ptr %26, null
  br i1 %.not.i.i.i, label %_ZNSt6vectorINSt7__cxx1112basic_stringIcSt11char_traitsIcESaIcEEESaIS5_EED2Ev.exit, label %27

27:                                               ; preds = %_ZSt8_DestroyIPNSt7__cxx1112basic_stringIcSt11char_traitsIcESaIcEEES5_EvT_S7_RSaIT0_E.exit.i
  call void @_ZdlPv(ptr noundef nonnull %26) #27
  br label %_ZNSt6vectorINSt7__cxx1112basic_stringIcSt11char_traitsIcESaIcEEESaIS5_EED2Ev.exit

_ZNSt6vectorINSt7__cxx1112basic_stringIcSt11char_traitsIcESaIcEEESaIS5_EED2Ev.exit: ; preds = %_ZSt8_DestroyIPNSt7__cxx1112basic_stringIcSt11char_traitsIcESaIcEEES5_EvT_S7_RSaIT0_E.exit.i, %27
  store ptr getelementptr inbounds nuw inrange(-16, 152) (i8, ptr @_ZTVN6duckdb21PrimitiveColumnWriterE, i64 16), ptr %0, align 8, !tbaa !3
  ret void

28:                                               ; preds = %7
  %29 = landingpad { ptr, i32 }
          cleanup
  call void @_ZNSt6vectorINSt7__cxx1112basic_stringIcSt11char_traitsIcESaIcEEESaIS5_EED2Ev(ptr noundef nonnull align 8 dereferenceable(24) %8) #25
  resume { ptr, i32 } %29
}